target datalayout = "e-m:e-p270:32:32-p271:32:32-p272:64:64-i64:64-i128:128-f80:128-n8:16:32:64-S128"
target triple = "x86_64-pc-linux-gnu"

%struct.options_st = type { ptr, i32, i32, ptr }

@test_get_options.options = internal constant [10 x %struct.options_st] [%struct.options_st { ptr @OPT_HELP_STR, i32 1, i32 45, ptr @.str }, %struct.options_st { ptr @OPT_HELP_STR, i32 1, i32 45, ptr @.str.1 }, %struct.options_st { ptr @.str.2, i32 500, i32 45, ptr @.str.3 }, %struct.options_st { ptr @.str.4, i32 501, i32 45, ptr @.str.5 }, %struct.options_st { ptr @.str.6, i32 502, i32 115, ptr @.str.7 }, %struct.options_st { ptr @.str.8, i32 503, i32 110, ptr @.str.9 }, %struct.options_st { ptr @.str.10, i32 504, i32 112, ptr @.str.11 }, %struct.options_st { ptr @.str.12, i32 505, i32 110, ptr @.str.13 }, %struct.options_st { ptr @.str.14, i32 1, i32 60, ptr @.str.15 }, %struct.options_st zeroinitializer], align 16
@OPT_HELP_STR = external constant [0 x i8], align 1
@.str = private unnamed_addr constant [21 x i8] c"Usage: %s [options]\0A\00", align 1
@.str.1 = private unnamed_addr constant [20 x i8] c"Valid options are:\0A\00", align 1
@.str.2 = private unnamed_addr constant [5 x i8] c"help\00", align 1
@.str.3 = private unnamed_addr constant [21 x i8] c"Display this summary\00", align 1
@.str.4 = private unnamed_addr constant [5 x i8] c"list\00", align 1
@.str.5 = private unnamed_addr constant [36 x i8] c"Display the list of tests available\00", align 1
@.str.6 = private unnamed_addr constant [5 x i8] c"test\00", align 1
@.str.7 = private unnamed_addr constant [32 x i8] c"Run a single test by id or name\00", align 1
@.str.8 = private unnamed_addr constant [5 x i8] c"iter\00", align 1
@.str.9 = private unnamed_addr constant [33 x i8] c"Run a single iteration of a test\00", align 1
@.str.10 = private unnamed_addr constant [7 x i8] c"indent\00", align 1
@.str.11 = private unnamed_addr constant [31 x i8] c"Number of tabs added to output\00", align 1
@.str.12 = private unnamed_addr constant [5 x i8] c"seed\00", align 1
@.str.13 = private unnamed_addr constant [35 x i8] c"Seed value to randomize tests with\00", align 1
@.str.14 = private unnamed_addr constant [7 x i8] c"config\00", align 1
@.str.15 = private unnamed_addr constant [45 x i8] c"The configuration file to use for the libctx\00", align 1
@config_file = internal global ptr null, align 8
@.str.16 = private unnamed_addr constant [23 x i8] c"test_asn1_stable_parse\00", align 1
@.str.17 = private unnamed_addr constant [41 x i8] c"../openssl/test/asn1_stable_parse_test.c\00", align 1
@.str.18 = private unnamed_addr constant [7 x i8] c"newctx\00", align 1
@.str.19 = private unnamed_addr constant [46 x i8] c"OSSL_LIB_CTX_load_config(newctx, config_file)\00", align 1
@.str.20 = private unnamed_addr constant [2 x i8] c"0\00", align 1

; Function Attrs: nounwind uwtable
define dso_local ptr @test_get_options() #0 {
  ret ptr @test_get_options.options
}

; Function Attrs: nounwind uwtable
define dso_local i32 @setup_tests() #0 {
  %1 = alloca i32, align 4
  %2 = alloca i32, align 4
  %3 = alloca i32, align 4
  call void @llvm.lifetime.start.p0(i64 4, ptr %2) #4
  br label %4

4:                                                ; preds = %12, %0
  %5 = call i32 @opt_next()
  store i32 %5, ptr %2, align 4, !tbaa !4
  %6 = icmp ne i32 %5, 0
  br i1 %6, label %7, label %13

7:                                                ; preds = %4
  %8 = load i32, ptr %2, align 4, !tbaa !4
  switch i32 %8, label %11 [
    i32 1, label %9
  ]

9:                                                ; preds = %7
  %10 = call ptr @opt_arg()
  store ptr %10, ptr @config_file, align 8, !tbaa !8
  br label %12

11:                                               ; preds = %7
  store i32 0, ptr %1, align 4
  store i32 1, ptr %3, align 4
  br label %14

12:                                               ; preds = %9
  br label %4, !llvm.loop !11

13:                                               ; preds = %4
  call void @add_test(ptr noundef @.str.16, ptr noundef @test_asn1_stable_parse)
  store i32 1, ptr %1, align 4
  store i32 1, ptr %3, align 4
  br label %14

14:                                               ; preds = %13, %11
  call void @llvm.lifetime.end.p0(i64 4, ptr %2) #4
  %15 = load i32, ptr %1, align 4
  ret i32 %15
}

; Function Attrs: nocallback nofree nosync nounwind willreturn memory(argmem: readwrite)
declare void @llvm.lifetime.start.p0(i64 immarg, ptr captures(none)) #1

declare i32 @opt_next() #2

declare ptr @opt_arg() #2

declare void @add_test(ptr noundef, ptr noundef) #2

; Function Attrs: nounwind uwtable
define internal i32 @test_asn1_stable_parse() #0 {
  %1 = alloca i32, align 4
  %2 = alloca i64, align 8
  %3 = alloca ptr, align 8
  call void @llvm.lifetime.start.p0(i64 4, ptr %1) #4
  store i32 0, ptr %1, align 4, !tbaa !4
  call void @llvm.lifetime.start.p0(i64 8, ptr %2) #4
  call void @llvm.lifetime.start.p0(i64 8, ptr %3) #4
  %4 = call ptr @OSSL_LIB_CTX_new()
  store ptr %4, ptr %3, align 8, !tbaa !13
  %5 = load ptr, ptr %3, align 8, !tbaa !13
  %6 = call i32 @test_ptr(ptr noundef @.str.17, i32 noundef 44, ptr noundef @.str.18, ptr noundef %5)
  %7 = icmp ne i32 %6, 0
  br i1 %7, label %9, label %8

8:                                                ; preds = %0
  br label %30

9:                                                ; preds = %0
  %10 = load ptr, ptr %3, align 8, !tbaa !13
  %11 = load ptr, ptr @config_file, align 8, !tbaa !8
  %12 = call i32 @OSSL_LIB_CTX_load_config(ptr noundef %10, ptr noundef %11)
  %13 = call i32 @test_int_eq(ptr noundef @.str.17, i32 noundef 47, ptr noundef @.str.19, ptr noundef @.str.20, i32 noundef %12, i32 noundef 0)
  %14 = icmp ne i32 %13, 0
  br i1 %14, label %16, label %15

15:                                               ; preds = %9
  br label %28

16:                                               ; preds = %9
  %17 = call i64 @ERR_peek_error()
  store i64 %17, ptr %2, align 8, !tbaa !15
  %18 = load i64, ptr %2, align 8, !tbaa !15
  %19 = call i32 @ERR_GET_LIB(i64 noundef %18)
  %20 = icmp ne i32 %19, 13
  br i1 %20, label %21, label %22

21:                                               ; preds = %16
  br label %28

22:                                               ; preds = %16
  %23 = load i64, ptr %2, align 8, !tbaa !15
  %24 = call i32 @ERR_GET_REASON(i64 noundef %23)
  %25 = icmp ne i32 %24, 218
  br i1 %25, label %26, label %27

26:                                               ; preds = %22
  br label %28

27:                                               ; preds = %22
  call void @ERR_clear_error()
  store i32 1, ptr %1, align 4, !tbaa !4
  br label %28

28:                                               ; preds = %27, %26, %21, %15
  %29 = load ptr, ptr %3, align 8, !tbaa !13
  call void @OSSL_LIB_CTX_free(ptr noundef %29)
  br label %30

30:                                               ; preds = %28, %8
  %31 = load i32, ptr %1, align 4, !tbaa !4
  call void @llvm.lifetime.end.p0(i64 8, ptr %3) #4
  call void @llvm.lifetime.end.p0(i64 8, ptr %2) #4
  call void @llvm.lifetime.end.p0(i64 4, ptr %1) #4
  ret i32 %31
}

; Function Attrs: nocallback nofree nosync nounwind willreturn memory(argmem: readwrite)
declare void @llvm.lifetime.end.p0(i64 immarg, ptr captures(none)) #1

declare ptr @OSSL_LIB_CTX_new() #2

declare i32 @test_ptr(ptr noundef, i32 noundef, ptr noundef, ptr noundef) #2

declare i32 @test_int_eq(ptr noundef, i32 noundef, ptr noundef, ptr noundef, i32 noundef, i32 noundef) #2

declare i32 @OSSL_LIB_CTX_load_config(ptr noundef, ptr noundef) #2

declare i64 @ERR_peek_error() #2

; Function Attrs: inlinehint nounwind uwtable
define internal i32 @ERR_GET_LIB(i64 noundef %0) #3 {
  %2 = alloca i32, align 4
  %3 = alloca i64, align 8
  store i64 %0, ptr %3, align 8, !tbaa !15
  %4 = load i64, ptr %3, align 8, !tbaa !15
  %5 = and i64 %4, 2147483648
  %6 = icmp ne i64 %5, 0
  br i1 %6, label %7, label %8

7:                                                ; preds = %1
  store i32 2, ptr %2, align 4
  br label %13

8:                                                ; preds = %1
  %9 = load i64, ptr %3, align 8, !tbaa !15
  %10 = lshr i64 %9, 23
  %11 = and i64 %10, 255
  %12 = trunc i64 %11 to i32
  store i32 %12, ptr %2, align 4
  br label %13

13:                                               ; preds = %8, %7
  %14 = load i32, ptr %2, align 4
  ret i32 %14
}

; Function Attrs: inlinehint nounwind uwtable
define internal i32 @ERR_GET_REASON(i64 noundef %0) #3 {
  %2 = alloca i32, align 4
  %3 = alloca i64, align 8
  store i64 %0, ptr %3, align 8, !tbaa !15
  %4 = load i64, ptr %3, align 8, !tbaa !15
  %5 = and i64 %4, 2147483648
  %6 = icmp ne i64 %5, 0
  br i1 %6, label %7, label %11

7:                                                ; preds = %1
  %8 = load i64, ptr %3, align 8, !tbaa !15
  %9 = and i64 %8, 2147483647
  %10 = trunc i64 %9 to i32
  store i32 %10, ptr %2, align 4
  br label %15

11:                                               ; preds = %1
  %12 = load i64, ptr %3, align 8, !tbaa !15
  %13 = and i64 %12, 8388607
  %14 = trunc i64 %13 to i32
  store i32 %14, ptr %2, align 4
  br label %15

15:                                               ; preds = %11, %7
  %16 = load i32, ptr %2, align 4
  ret i32 %16
}

declare void @ERR_clear_error() #2

declare void @OSSL_LIB_CTX_free(ptr noundef) #2


!llvm.module.flags = !{!0, !1, !2, !3}

!0 = !{i32 1, !"wchar_size", i32 4}
!1 = !{i32 8, !"PIC Level", i32 2}
!2 = !{i32 7, !"PIE Level", i32 2}
!3 = !{i32 7, !"uwtable", i32 2}
!4 = !{!5, !5, i64 0}
!5 = !{!"int", !6, i64 0}
!6 = !{!"omnipotent char", !7, i64 0}
!7 = !{!"Simple C/C++ TBAA"}
!8 = !{!9, !9, i64 0}
!9 = !{!"p1 omnipotent char", !10, i64 0}
!10 = !{!"any pointer", !6, i64 0}
!11 = distinct !{!11, !12}
!12 = !{!"llvm.loop.mustprogress"}
!13 = !{!14, !14, i64 0}
!14 = !{!"p1 _ZTS15ossl_lib_ctx_st", !10, i64 0}
!15 = !{!16, !16, i64 0}
!16 = !{!"long", !6, i64 0}
